; ModuleID = '20/1169.c'
source_filename = "20/1169.c"
target datalayout = "e-m:e-p270:32:32-p271:32:32-p272:64:64-i64:64-f80:128-n8:16:32:64-S128"
target triple = "x86_64-pc-linux-gnu"

@.str = private unnamed_addr constant [5 x i8] c"%s%s\00", align 1

; Function Attrs: noinline nounwind uwtable
define dso_local void @main() #0 {
  %1 = alloca [19 x i8], align 16
  %2 = alloca [4 x i8], align 1
  %3 = alloca [20 x i8], align 16
  %4 = alloca i32, align 4
  %5 = alloca i32, align 4
  %6 = alloca i32, align 4
  %7 = alloca i32, align 4
  br label %8

8:                                                ; preds = %97, %0
  %9 = getelementptr inbounds [19 x i8], [19 x i8]* %1, i64 0, i64 0
  %10 = getelementptr inbounds [4 x i8], [4 x i8]* %2, i64 0, i64 0
  %11 = call i32 (i8*, ...) @__isoc99_scanf(i8* getelementptr inbounds ([5 x i8], [5 x i8]* @.str, i64 0, i64 0), i8* %9, i8* %10)
  %12 = icmp eq i32 %11, -1
  br i1 %12, label %13, label %14

13:                                               ; preds = %8
  br label %104

14:                                               ; preds = %8
  %15 = getelementptr inbounds [19 x i8], [19 x i8]* %1, i64 0, i64 0
  %16 = call i64 @strlen(i8* %15) #3
  %17 = trunc i64 %16 to i32
  store i32 %17, i32* %4, align 4
  store i32 0, i32* %7, align 4
  store i32 0, i32* %5, align 4
  br label %18

18:                                               ; preds = %37, %14
  %19 = load i32, i32* %5, align 4
  %20 = load i32, i32* %4, align 4
  %21 = icmp slt i32 %19, %20
  br i1 %21, label %22, label %40

22:                                               ; preds = %18
  %23 = load i32, i32* %5, align 4
  %24 = sext i32 %23 to i64
  %25 = getelementptr inbounds [19 x i8], [19 x i8]* %1, i64 0, i64 %24
  %26 = load i8, i8* %25, align 1
  %27 = sext i8 %26 to i32
  %28 = load i32, i32* %7, align 4
  %29 = sext i32 %28 to i64
  %30 = getelementptr inbounds [19 x i8], [19 x i8]* %1, i64 0, i64 %29
  %31 = load i8, i8* %30, align 1
  %32 = sext i8 %31 to i32
  %33 = icmp sgt i32 %27, %32
  br i1 %33, label %34, label %36

34:                                               ; preds = %22
  %35 = load i32, i32* %5, align 4
  store i32 %35, i32* %7, align 4
  br label %36

36:                                               ; preds = %34, %22
  br label %37

37:                                               ; preds = %36
  %38 = load i32, i32* %5, align 4
  %39 = add nsw i32 %38, 1
  store i32 %39, i32* %5, align 4
  br label %18

40:                                               ; preds = %18
  store i32 0, i32* %5, align 4
  br label %41

41:                                               ; preds = %53, %40
  %42 = load i32, i32* %5, align 4
  %43 = load i32, i32* %7, align 4
  %44 = icmp sle i32 %42, %43
  br i1 %44, label %45, label %56

45:                                               ; preds = %41
  %46 = load i32, i32* %5, align 4
  %47 = sext i32 %46 to i64
  %48 = getelementptr inbounds [19 x i8], [19 x i8]* %1, i64 0, i64 %47
  %49 = load i8, i8* %48, align 1
  %50 = load i32, i32* %5, align 4
  %51 = sext i32 %50 to i64
  %52 = getelementptr inbounds [20 x i8], [20 x i8]* %3, i64 0, i64 %51
  store i8 %49, i8* %52, align 1
  br label %53

53:                                               ; preds = %45
  %54 = load i32, i32* %5, align 4
  %55 = add nsw i32 %54, 1
  store i32 %55, i32* %5, align 4
  br label %41

56:                                               ; preds = %41
  store i32 0, i32* %5, align 4
  %57 = load i32, i32* %7, align 4
  %58 = add nsw i32 %57, 1
  store i32 %58, i32* %6, align 4
  br label %59

59:                                               ; preds = %70, %56
  %60 = load i32, i32* %5, align 4
  %61 = icmp slt i32 %60, 3
  br i1 %61, label %62, label %75

62:                                               ; preds = %59
  %63 = load i32, i32* %5, align 4
  %64 = sext i32 %63 to i64
  %65 = getelementptr inbounds [4 x i8], [4 x i8]* %2, i64 0, i64 %64
  %66 = load i8, i8* %65, align 1
  %67 = load i32, i32* %6, align 4
  %68 = sext i32 %67 to i64
  %69 = getelementptr inbounds [20 x i8], [20 x i8]* %3, i64 0, i64 %68
  store i8 %66, i8* %69, align 1
  br label %70

70:                                               ; preds = %62
  %71 = load i32, i32* %5, align 4
  %72 = add nsw i32 %71, 1
  store i32 %72, i32* %5, align 4
  %73 = load i32, i32* %6, align 4
  %74 = add nsw i32 %73, 1
  store i32 %74, i32* %6, align 4
  br label %59

75:                                               ; preds = %59
  %76 = load i32, i32* %7, align 4
  %77 = add nsw i32 %76, 1
  store i32 %77, i32* %5, align 4
  %78 = load i32, i32* %7, align 4
  %79 = add nsw i32 %78, 4
  store i32 %79, i32* %6, align 4
  br label %80

80:                                               ; preds = %92, %75
  %81 = load i32, i32* %5, align 4
  %82 = load i32, i32* %4, align 4
  %83 = icmp slt i32 %81, %82
  br i1 %83, label %84, label %97

84:                                               ; preds = %80
  %85 = load i32, i32* %5, align 4
  %86 = sext i32 %85 to i64
  %87 = getelementptr inbounds [19 x i8], [19 x i8]* %1, i64 0, i64 %86
  %88 = load i8, i8* %87, align 1
  %89 = load i32, i32* %6, align 4
  %90 = sext i32 %89 to i64
  %91 = getelementptr inbounds [20 x i8], [20 x i8]* %3, i64 0, i64 %90
  store i8 %88, i8* %91, align 1
  br label %92

92:                                               ; preds = %84
  %93 = load i32, i32* %5, align 4
  %94 = add nsw i32 %93, 1
  store i32 %94, i32* %5, align 4
  %95 = load i32, i32* %6, align 4
  %96 = add nsw i32 %95, 1
  store i32 %96, i32* %6, align 4
  br label %80

97:                                               ; preds = %80
  %98 = load i32, i32* %4, align 4
  %99 = add nsw i32 %98, 3
  %100 = sext i32 %99 to i64
  %101 = getelementptr inbounds [20 x i8], [20 x i8]* %3, i64 0, i64 %100
  store i8 0, i8* %101, align 1
  %102 = getelementptr inbounds [20 x i8], [20 x i8]* %3, i64 0, i64 0
  %103 = call i32 @puts(i8* %102)
  br label %8

104:                                              ; preds = %13
  ret void
}

declare dso_local i32 @__isoc99_scanf(i8*, ...) #1

; Function Attrs: nounwind readonly
declare dso_local i64 @strlen(i8*) #2

declare dso_local i32 @puts(i8*) #1


!llvm.module.flags = !{!0}
!llvm.ident = !{!1}

!0 = !{i32 1, !"wchar_size", i32 4}
!1 = !{!"clang version 10.0.0-4ubuntu1 "}
